target datalayout = "e-m:e-p270:32:32-p271:32:32-p272:64:64-i64:64-i128:128-f80:128-n8:16:32:64-S128"
target triple = "x86_64-pc-linux-gnu"

%struct.slurm_conf_t = type { i64, ptr, i16, ptr, ptr, ptr, ptr, ptr, i16, ptr, ptr, ptr, ptr, ptr, ptr, ptr, i16, ptr, ptr, ptr, ptr, i16, ptr, ptr, ptr, i64, ptr, ptr, ptr, ptr, i16, ptr, ptr, i16, i32, ptr, i32, ptr, i32, i32, ptr, ptr, i64, i64, ptr, i16, i16, ptr, i32, i32, ptr, i32, ptr, i32, i16, i16, i16, ptr, i16, i16, ptr, ptr, i32, i16, i16, ptr, i32, i16, ptr, ptr, ptr, ptr, i16, ptr, ptr, ptr, ptr, i32, ptr, ptr, ptr, ptr, i16, i16, ptr, i32, i32, i32, i16, i16, ptr, ptr, i16, ptr, ptr, i32, i32, i32, i32, i32, i64, i32, i32, i16, ptr, ptr, i32, ptr, ptr, ptr, i16, i32, ptr, ptr, i16, ptr, ptr, i32, i16, ptr, ptr, ptr, ptr, i32, i32, i16, i16, i32, ptr, i16, ptr, i32, i32, i32, i32, i32, i32, ptr, i16, ptr, ptr, i32, i16, ptr, i32, i16, i16, ptr, ptr, ptr, i16, ptr, ptr, ptr, ptr, i16, i16, ptr, i16, ptr, i16, ptr, i16, ptr, i16, ptr, ptr, ptr, ptr, i16, ptr, ptr, ptr, i32, ptr, i32, ptr, ptr, i16, ptr, ptr, i32, i16, ptr, ptr, i16, i16, ptr, i16, ptr, ptr, ptr, i32, ptr, i16, i16, ptr, ptr, ptr, ptr, ptr, ptr, ptr, ptr, i16, i32, i16, ptr, ptr, ptr, ptr, i32, ptr, ptr, ptr, i16, ptr, ptr, ptr, i16, ptr, i16, ptr, i16, i16, ptr }
%union.pthread_mutex_t = type { %struct.__pthread_mutex_s }
%struct.__pthread_mutex_s = type { i32, i32, i32, i32, i32, i16, i16, %struct.__pthread_internal_list }
%struct.__pthread_internal_list = type { ptr, ptr }
%struct.sockaddr_storage = type { i16, [118 x i8], i64 }
%struct.forward = type { %struct.slurm_node_alias_addrs_t, i16, i16, ptr, i32, i16, i16 }
%struct.slurm_node_alias_addrs_t = type { i64, ptr, ptr, i32, ptr }
%struct.slurm_msg = type { %struct.sockaddr_storage, ptr, i32, i32, i32, i8, i32, i8, i32, ptr, ptr, i32, ptr, ptr, i16, i8, i16, i16, %struct.forward, ptr, %struct.sockaddr_storage, ptr }

@slurm_conf = external global %struct.slurm_conf_t, align 8
@slurm_send_addr_recv_msgs.conn_lock = internal global %union.pthread_mutex_t zeroinitializer, align 8
@slurm_send_addr_recv_msgs.conn_timeout = internal global i16 -2, align 2
@.str.64 = private unnamed_addr constant [29 x i8] c"%s: pthread_mutex_lock(): %m\00", align 1
@__func__.slurm_send_addr_recv_msgs = private unnamed_addr constant [26 x i8] c"slurm_send_addr_recv_msgs\00", align 1
@.str.65 = private unnamed_addr constant [31 x i8] c"%s: pthread_mutex_unlock(): %m\00", align 1
@.str.66 = private unnamed_addr constant [46 x i8] c"NET: Timed out connecting to %pA, retrying...\00", align 1
@.str.67 = private unnamed_addr constant [44 x i8] c"NET: Connection refused by %pA, retrying...\00", align 1
@.str.68 = private unnamed_addr constant [34 x i8] c"NET: Failed to connect to %pA, %m\00", align 1

; Function Attrs: nounwind uwtable
define internal ptr @_send_and_recv_msgs(i32 noundef %0, ptr noundef %1, i32 noundef %2) #0 {
  %4 = alloca i32, align 4
  %5 = alloca ptr, align 8
  %6 = alloca i32, align 4
  %7 = alloca ptr, align 8
  store i32 %0, ptr %4, align 4
  store ptr %1, ptr %5, align 8
  store i32 %2, ptr %6, align 4
  call void @llvm.lifetime.start.p0(i64 8, ptr %7) #12
  store ptr null, ptr %7, align 8
  %8 = load i32, ptr %4, align 4
  %9 = load ptr, ptr %5, align 8
  %10 = call i32 @slurm_send_node_msg(i32 noundef %8, ptr noundef %9)
  %11 = icmp sge i32 %10, 0
  br i1 %11, label %12, label %24

12:                                               ; preds = %3
  %13 = load i32, ptr %4, align 4
  %14 = load ptr, ptr %5, align 8
  %15 = getelementptr inbounds nuw %struct.slurm_msg, ptr %14, i32 0, i32 18
  %16 = getelementptr inbounds nuw %struct.forward, ptr %15, i32 0, i32 6
  %17 = load i16, ptr %16, align 2
  %18 = zext i16 %17 to i32
  %19 = load ptr, ptr %5, align 8
  %20 = getelementptr inbounds nuw %struct.slurm_msg, ptr %19, i32 0, i32 18
  %21 = getelementptr inbounds nuw %struct.forward, ptr %20, i32 0, i32 4
  %22 = load i32, ptr %21, align 8
  %23 = call ptr @slurm_receive_msgs(i32 noundef %13, i32 noundef %18, i32 noundef %22)
  store ptr %23, ptr %7, align 8
  br label %24

24:                                               ; preds = %12, %3
  %25 = load i32, ptr %4, align 4
  %26 = call i32 @close(i32 noundef %25)
  %27 = load ptr, ptr %7, align 8
  call void @llvm.lifetime.end.p0(i64 8, ptr %7) #12
  ret ptr %27
}

; Function Attrs: nounwind uwtable
define dso_local i32 @slurm_open_msg_conn(ptr noundef %0) #0 {
  %2 = alloca ptr, align 8
  %3 = alloca i32, align 4
  store ptr %0, ptr %2, align 8
  call void @llvm.lifetime.start.p0(i64 4, ptr %3) #12
  %4 = load ptr, ptr %2, align 8
  %5 = call i32 @slurm_open_stream(ptr noundef %4, i1 noundef zeroext false)
  store i32 %5, ptr %3, align 4
  %6 = load i32, ptr %3, align 4
  call void @llvm.lifetime.end.p0(i64 4, ptr %3) #12
  ret i32 %6
}

; Function Attrs: nounwind uwtable
define dso_local ptr @slurm_send_addr_recv_msgs(ptr noundef %0, ptr noundef %1, i32 noundef %2) #0 {
  %4 = alloca ptr, align 8
  %5 = alloca ptr, align 8
  %6 = alloca ptr, align 8
  %7 = alloca i32, align 4
  %8 = alloca i64, align 8
  %9 = alloca i64, align 8
  %10 = alloca ptr, align 8
  %11 = alloca i32, align 4
  %12 = alloca i8, align 1
  %13 = alloca i32, align 4
  %14 = alloca i32, align 4
  %15 = alloca i32, align 4
  store ptr %0, ptr %5, align 8
  store ptr %1, ptr %6, align 8
  store i32 %2, ptr %7, align 4
  call void @llvm.lifetime.start.p0(i64 8, ptr %8) #12
  call void @llvm.lifetime.start.p0(i64 8, ptr %9) #12
  call void @llvm.lifetime.start.p0(i64 8, ptr %10) #12
  store ptr null, ptr %10, align 8
  call void @llvm.lifetime.start.p0(i64 4, ptr %11) #12
  store i32 -1, ptr %11, align 4
  call void @llvm.lifetime.start.p0(i64 1, ptr %12) #12
  store i8 1, ptr %12, align 1
  br label %16

16:                                               ; preds = %3
  call void @llvm.lifetime.start.p0(i64 4, ptr %13) #12
  %17 = call i32 @pthread_mutex_lock(ptr noundef @slurm_send_addr_recv_msgs.conn_lock) #12
  store i32 %17, ptr %13, align 4
  %18 = load i32, ptr %13, align 4
  %19 = icmp ne i32 %18, 0
  br i1 %19, label %20, label %23

20:                                               ; preds = %16
  %21 = load i32, ptr %13, align 4
  %22 = call ptr @__errno_location() #14
  store i32 %21, ptr %22, align 4
  call void (ptr, ...) @fatal_abort(ptr noundef @.str.64, ptr noundef @__func__.slurm_send_addr_recv_msgs) #15
  unreachable

23:                                               ; preds = %16
  call void @llvm.lifetime.end.p0(i64 4, ptr %13) #12
  br label %24

24:                                               ; preds = %23
  br label %25

25:                                               ; preds = %24
  %26 = load i16, ptr @slurm_send_addr_recv_msgs.conn_timeout, align 2
  %27 = zext i16 %26 to i32
  %28 = icmp eq i32 %27, 65534
  br i1 %28, label %29, label %40

29:                                               ; preds = %25
  %30 = load i16, ptr getelementptr inbounds nuw (%struct.slurm_conf_t, ptr @slurm_conf, i32 0, i32 110), align 8
  %31 = zext i16 %30 to i32
  %32 = icmp slt i32 %31, 10
  br i1 %32, label %33, label %36

33:                                               ; preds = %29
  %34 = load i16, ptr getelementptr inbounds nuw (%struct.slurm_conf_t, ptr @slurm_conf, i32 0, i32 110), align 8
  %35 = zext i16 %34 to i32
  br label %37

36:                                               ; preds = %29
  br label %37

37:                                               ; preds = %36, %33
  %38 = phi i32 [ %35, %33 ], [ 10, %36 ]
  %39 = trunc i32 %38 to i16
  store i16 %39, ptr @slurm_send_addr_recv_msgs.conn_timeout, align 2
  br label %40

40:                                               ; preds = %37, %25
  br label %41

41:                                               ; preds = %40
  call void @llvm.lifetime.start.p0(i64 4, ptr %14) #12
  %42 = call i32 @pthread_mutex_unlock(ptr noundef @slurm_send_addr_recv_msgs.conn_lock) #12
  store i32 %42, ptr %14, align 4
  %43 = load i32, ptr %14, align 4
  %44 = icmp ne i32 %43, 0
  br i1 %44, label %45, label %48

45:                                               ; preds = %41
  %46 = load i32, ptr %14, align 4
  %47 = call ptr @__errno_location() #14
  store i32 %46, ptr %47, align 4
  call void (ptr, ...) @fatal_abort(ptr noundef @.str.65, ptr noundef @__func__.slurm_send_addr_recv_msgs) #15
  unreachable

48:                                               ; preds = %41
  call void @llvm.lifetime.end.p0(i64 4, ptr %14) #12
  br label %49

49:                                               ; preds = %48
  br label %50

50:                                               ; preds = %49
  %51 = call i64 @time(ptr noundef null) #12
  store i64 %51, ptr %9, align 8
  store i64 %51, ptr %8, align 8
  br label %52

52:                                               ; preds = %123, %50
  %53 = load i64, ptr %9, align 8
  %54 = load i64, ptr %8, align 8
  %55 = sub nsw i64 %53, %54
  %56 = load i16, ptr @slurm_send_addr_recv_msgs.conn_timeout, align 2
  %57 = zext i16 %56 to i64
  %58 = icmp slt i64 %55, %57
  br i1 %58, label %59, label %125

59:                                               ; preds = %52
  %60 = load ptr, ptr %5, align 8
  %61 = getelementptr inbounds nuw %struct.slurm_msg, ptr %60, i32 0, i32 0
  %62 = call i32 @slurm_open_msg_conn(ptr noundef %61)
  store i32 %62, ptr %11, align 4
  %63 = load i32, ptr %11, align 4
  %64 = icmp sge i32 %63, 0
  br i1 %64, label %73, label %65

65:                                               ; preds = %59
  %66 = call ptr @__errno_location() #14
  %67 = load i32, ptr %66, align 4
  %68 = icmp ne i32 %67, 111
  br i1 %68, label %69, label %74

69:                                               ; preds = %65
  %70 = call ptr @__errno_location() #14
  %71 = load i32, ptr %70, align 4
  %72 = icmp ne i32 %71, 110
  br i1 %72, label %73, label %74

73:                                               ; preds = %69, %59
  br label %125

74:                                               ; preds = %69, %65
  %75 = call ptr @__errno_location() #14
  %76 = load i32, ptr %75, align 4
  %77 = icmp eq i32 %76, 110
  br i1 %77, label %78, label %100

78:                                               ; preds = %74
  %79 = load i8, ptr %12, align 1, !range !16, !noundef !17
  %80 = trunc i8 %79 to i1
  br i1 %80, label %81, label %99

81:                                               ; preds = %78
  br label %82

82:                                               ; preds = %81
  %83 = load i64, ptr getelementptr inbounds nuw (%struct.slurm_conf_t, ptr @slurm_conf, i32 0, i32 42), align 8
  %84 = and i64 %83, 1024
  %85 = icmp ne i64 %84, 0
  br i1 %85, label %86, label %96

86:                                               ; preds = %82
  br label %87

87:                                               ; preds = %86
  %88 = call i32 @get_log_level()
  %89 = icmp sge i32 %88, 4
  br i1 %89, label %90, label %93

90:                                               ; preds = %87
  %91 = load ptr, ptr %5, align 8
  %92 = getelementptr inbounds nuw %struct.slurm_msg, ptr %91, i32 0, i32 0
  call void (i32, ptr, ...) @log_var(i32 noundef 4, ptr noundef @.str.66, ptr noundef %92)
  br label %93

93:                                               ; preds = %90, %87
  br label %94

94:                                               ; preds = %93
  br label %95

95:                                               ; preds = %94
  br label %96

96:                                               ; preds = %95, %82
  br label %97

97:                                               ; preds = %96
  br label %98

98:                                               ; preds = %97
  br label %99

99:                                               ; preds = %98, %78
  br label %123

100:                                              ; preds = %74
  %101 = load i8, ptr %12, align 1, !range !16, !noundef !17
  %102 = trunc i8 %101 to i1
  br i1 %102, label %103, label %121

103:                                              ; preds = %100
  br label %104

104:                                              ; preds = %103
  %105 = load i64, ptr getelementptr inbounds nuw (%struct.slurm_conf_t, ptr @slurm_conf, i32 0, i32 42), align 8
  %106 = and i64 %105, 1024
  %107 = icmp ne i64 %106, 0
  br i1 %107, label %108, label %118

108:                                              ; preds = %104
  br label %109

109:                                              ; preds = %108
  %110 = call i32 @get_log_level()
  %111 = icmp sge i32 %110, 4
  br i1 %111, label %112, label %115

112:                                              ; preds = %109
  %113 = load ptr, ptr %5, align 8
  %114 = getelementptr inbounds nuw %struct.slurm_msg, ptr %113, i32 0, i32 0
  call void (i32, ptr, ...) @log_var(i32 noundef 4, ptr noundef @.str.67, ptr noundef %114)
  br label %115

115:                                              ; preds = %112, %109
  br label %116

116:                                              ; preds = %115
  br label %117

117:                                              ; preds = %116
  br label %118

118:                                              ; preds = %117, %104
  br label %119

119:                                              ; preds = %118
  br label %120

120:                                              ; preds = %119
  br label %121

121:                                              ; preds = %120, %100
  %122 = call i32 @sleep(i32 noundef 1)
  br label %123

123:                                              ; preds = %121, %99
  store i8 0, ptr %12, align 1
  %124 = call i64 @time(ptr noundef null) #12
  store i64 %124, ptr %9, align 8
  br label %52, !llvm.loop !26

125:                                              ; preds = %73, %52
  %126 = load i32, ptr %11, align 4
  %127 = icmp slt i32 %126, 0
  br i1 %127, label %128, label %149

128:                                              ; preds = %125
  br label %129

129:                                              ; preds = %128
  %130 = load i64, ptr getelementptr inbounds nuw (%struct.slurm_conf_t, ptr @slurm_conf, i32 0, i32 42), align 8
  %131 = and i64 %130, 1024
  %132 = icmp ne i64 %131, 0
  br i1 %132, label %133, label %143

133:                                              ; preds = %129
  br label %134

134:                                              ; preds = %133
  %135 = call i32 @get_log_level()
  %136 = icmp sge i32 %135, 4
  br i1 %136, label %137, label %140

137:                                              ; preds = %134
  %138 = load ptr, ptr %5, align 8
  %139 = getelementptr inbounds nuw %struct.slurm_msg, ptr %138, i32 0, i32 0
  call void (i32, ptr, ...) @log_var(i32 noundef 4, ptr noundef @.str.68, ptr noundef %139)
  br label %140

140:                                              ; preds = %137, %134
  br label %141

141:                                              ; preds = %140
  br label %142

142:                                              ; preds = %141
  br label %143

143:                                              ; preds = %142, %129
  br label %144

144:                                              ; preds = %143
  br label %145

145:                                              ; preds = %144
  %146 = load ptr, ptr %6, align 8
  call void @mark_as_failed_forward(ptr noundef %10, ptr noundef %146, i32 noundef 1001)
  %147 = call ptr @__errno_location() #14
  store i32 1001, ptr %147, align 4
  %148 = load ptr, ptr %10, align 8
  store ptr %148, ptr %4, align 8
  store i32 1, ptr %15, align 4
  br label %171

149:                                              ; preds = %125
  %150 = load ptr, ptr %5, align 8
  %151 = getelementptr inbounds nuw %struct.slurm_msg, ptr %150, i32 0, i32 21
  store ptr null, ptr %151, align 8
  %152 = load ptr, ptr %5, align 8
  %153 = getelementptr inbounds nuw %struct.slurm_msg, ptr %152, i32 0, i32 19
  store ptr null, ptr %153, align 8
  %154 = load i32, ptr %11, align 4
  %155 = load ptr, ptr %5, align 8
  %156 = load i32, ptr %7, align 4
  %157 = call ptr @_send_and_recv_msgs(i32 noundef %154, ptr noundef %155, i32 noundef %156)
  store ptr %157, ptr %10, align 8
  %158 = icmp ne ptr %157, null
  br i1 %158, label %165, label %159

159:                                              ; preds = %149
  %160 = load ptr, ptr %6, align 8
  %161 = call ptr @__errno_location() #14
  %162 = load i32, ptr %161, align 4
  call void @mark_as_failed_forward(ptr noundef %10, ptr noundef %160, i32 noundef %162)
  %163 = call ptr @__errno_location() #14
  store i32 1001, ptr %163, align 4
  %164 = load ptr, ptr %10, align 8
  store ptr %164, ptr %4, align 8
  store i32 1, ptr %15, align 4
  br label %171

165:                                              ; preds = %149
  %166 = load ptr, ptr %10, align 8
  %167 = load ptr, ptr %6, align 8
  %168 = call i32 @list_for_each(ptr noundef %166, ptr noundef @_foreach_ret_list_hostname_set, ptr noundef %167)
  br label %169

169:                                              ; preds = %165
  %170 = load ptr, ptr %10, align 8
  store ptr %170, ptr %4, align 8
  store i32 1, ptr %15, align 4
  br label %171

171:                                              ; preds = %169, %159, %145
  call void @llvm.lifetime.end.p0(i64 1, ptr %12) #12
  call void @llvm.lifetime.end.p0(i64 4, ptr %11) #12
  call void @llvm.lifetime.end.p0(i64 8, ptr %10) #12
  call void @llvm.lifetime.end.p0(i64 8, ptr %9) #12
  call void @llvm.lifetime.end.p0(i64 8, ptr %8) #12
  %172 = load ptr, ptr %4, align 8
  ret ptr %172
}