; Function Attrs: nounwind uwtable
define dso_local ptr @slurm_send_addr_recv_msgs(ptr noundef %0, ptr noundef %1, i32 noundef %2) local_unnamed_addr #1 {
  %4 = alloca ptr, align 8
  call void @llvm.lifetime.start.p0(i64 8, ptr nonnull %4) #19
  store ptr null, ptr %4, align 8
  %5 = tail call i32 @pthread_mutex_lock(ptr noundef nonnull @slurm_send_addr_recv_msgs.conn_lock) #19
  %.not = icmp eq i32 %5, 0
  br i1 %.not, label %8, label %6

6:                                                ; preds = %3
  %7 = tail call ptr @__errno_location() #21
  store i32 %5, ptr %7, align 4
  tail call void (ptr, ...) @fatal_abort(ptr noundef nonnull @.str.64, ptr noundef nonnull @__func__.slurm_send_addr_recv_msgs) #22
  unreachable

8:                                                ; preds = %3
  %9 = load i16, ptr @slurm_send_addr_recv_msgs.conn_timeout, align 2
  %10 = icmp eq i16 %9, -2
  br i1 %10, label %11, label %14

11:                                               ; preds = %8
  %12 = load i16, ptr getelementptr inbounds nuw (i8, ptr @slurm_conf, i64 744), align 8
  %13 = tail call i16 @llvm.umin.i16(i16 %12, i16 10)
  store i16 %13, ptr @slurm_send_addr_recv_msgs.conn_timeout, align 2
  br label %14

14:                                               ; preds = %8, %11
  %15 = tail call i32 @pthread_mutex_unlock(ptr noundef nonnull @slurm_send_addr_recv_msgs.conn_lock) #19
  %.not31 = icmp eq i32 %15, 0
  br i1 %.not31, label %18, label %16

16:                                               ; preds = %14
  %17 = tail call ptr @__errno_location() #21
  store i32 %15, ptr %17, align 4
  tail call void (ptr, ...) @fatal_abort(ptr noundef nonnull @.str.65, ptr noundef nonnull @__func__.slurm_send_addr_recv_msgs) #22
  unreachable

18:                                               ; preds = %14
  %19 = tail call i64 @time(ptr noundef null) #19
  %20 = load i16, ptr @slurm_send_addr_recv_msgs.conn_timeout, align 2
  %.not43 = icmp eq i16 %20, 0
  br i1 %.not43, label %._crit_edge, label %.lr.ph

.lr.ph:                                           ; preds = %18, %47
  %.02341 = phi i1 [ false, %47 ], [ true, %18 ]
  %21 = tail call i32 @slurm_open_stream(ptr noundef %0, i1 noundef zeroext false) #19
  %22 = icmp sgt i32 %21, -1
  br i1 %22, label %61, label %23

23:                                               ; preds = %.lr.ph
  %24 = tail call ptr @__errno_location() #21
  %25 = load i32, ptr %24, align 4
  %26 = and i32 %25, -2
  %switch = icmp eq i32 %26, 110
  br i1 %switch, label %27, label %._crit_edge

27:                                               ; preds = %23
  %28 = icmp eq i32 %25, 110
  br i1 %28, label %29, label %37

29:                                               ; preds = %27
  br i1 %.02341, label %30, label %47

30:                                               ; preds = %29
  %31 = load i64, ptr getelementptr inbounds nuw (i8, ptr @slurm_conf, i64 320), align 8
  %32 = and i64 %31, 1024
  %.not35 = icmp eq i64 %32, 0
  br i1 %.not35, label %47, label %33

33:                                               ; preds = %30
  %34 = tail call i32 @get_log_level() #19
  %35 = icmp sgt i32 %34, 3
  br i1 %35, label %36, label %47

36:                                               ; preds = %33
  tail call void (i32, ptr, ...) @log_var(i32 noundef 4, ptr noundef nonnull @.str.66, ptr noundef %0) #19
  br label %47

37:                                               ; preds = %27
  br i1 %.02341, label %38, label %45

38:                                               ; preds = %37
  %39 = load i64, ptr getelementptr inbounds nuw (i8, ptr @slurm_conf, i64 320), align 8
  %40 = and i64 %39, 1024
  %.not34 = icmp eq i64 %40, 0
  br i1 %.not34, label %45, label %41

41:                                               ; preds = %38
  %42 = tail call i32 @get_log_level() #19
  %43 = icmp sgt i32 %42, 3
  br i1 %43, label %44, label %45

44:                                               ; preds = %41
  tail call void (i32, ptr, ...) @log_var(i32 noundef 4, ptr noundef nonnull @.str.67, ptr noundef %0) #19
  br label %45

45:                                               ; preds = %38, %44, %41, %37
  %46 = tail call i32 @sleep(i32 noundef 1) #19
  br label %47

47:                                               ; preds = %29, %33, %36, %30, %45
  %48 = tail call i64 @time(ptr noundef null) #19
  %49 = sub nsw i64 %48, %19
  %50 = load i16, ptr @slurm_send_addr_recv_msgs.conn_timeout, align 2
  %51 = zext i16 %50 to i64
  %52 = icmp slt i64 %49, %51
  br i1 %52, label %.lr.ph, label %._crit_edge, !llvm.loop !25

._crit_edge:                                      ; preds = %23, %47, %18
  %53 = load i64, ptr getelementptr inbounds nuw (i8, ptr @slurm_conf, i64 320), align 8
  %54 = and i64 %53, 1024
  %.not37 = icmp eq i64 %54, 0
  br i1 %.not37, label %59, label %55

55:                                               ; preds = %._crit_edge
  %56 = tail call i32 @get_log_level() #19
  %57 = icmp sgt i32 %56, 3
  br i1 %57, label %58, label %59

58:                                               ; preds = %55
  tail call void (i32, ptr, ...) @log_var(i32 noundef 4, ptr noundef nonnull @.str.68, ptr noundef %0) #19
  br label %59

59:                                               ; preds = %55, %58, %._crit_edge
  call void @mark_as_failed_forward(ptr noundef nonnull %4, ptr noundef %1, i32 noundef 1001) #19
  %60 = tail call ptr @__errno_location() #21
  store i32 1001, ptr %60, align 4
  br label %79

61:                                               ; preds = %.lr.ph
  %62 = getelementptr inbounds nuw i8, ptr %0, i64 416
  store ptr null, ptr %62, align 8
  %63 = getelementptr inbounds nuw i8, ptr %0, i64 280
  store ptr null, ptr %63, align 8
  %64 = tail call i32 @slurm_send_node_msg(i32 noundef range(i32 0, -2147483648) %21, ptr noundef %0)
  %65 = icmp sgt i32 %64, -1
  br i1 %65, label %_send_and_recv_msgs.exit, label %_send_and_recv_msgs.exit.thread

_send_and_recv_msgs.exit.thread:                  ; preds = %61
  %66 = tail call i32 @close(i32 noundef range(i32 0, -2147483648) %21) #19
  store ptr null, ptr %4, align 8
  br label %74

_send_and_recv_msgs.exit:                         ; preds = %61
  %67 = getelementptr inbounds nuw i8, ptr %0, i64 278
  %68 = load i16, ptr %67, align 2
  %69 = zext i16 %68 to i32
  %70 = getelementptr inbounds nuw i8, ptr %0, i64 272
  %71 = load i32, ptr %70, align 8
  %72 = tail call ptr @slurm_receive_msgs(i32 noundef range(i32 0, -2147483648) %21, i32 noundef %69, i32 noundef %71)
  %73 = tail call i32 @close(i32 noundef range(i32 0, -2147483648) %21) #19
  store ptr %72, ptr %4, align 8
  %.not36 = icmp eq ptr %72, null
  br i1 %.not36, label %74, label %77

74:                                               ; preds = %_send_and_recv_msgs.exit.thread, %_send_and_recv_msgs.exit
  %75 = tail call ptr @__errno_location() #21
  %76 = load i32, ptr %75, align 4
  call void @mark_as_failed_forward(ptr noundef nonnull %4, ptr noundef %1, i32 noundef %76) #19
  store i32 1001, ptr %75, align 4
  br label %79

77:                                               ; preds = %_send_and_recv_msgs.exit
  %78 = tail call i32 @list_for_each(ptr noundef nonnull %72, ptr noundef nonnull @_foreach_ret_list_hostname_set, ptr noundef %1) #19
  br label %79

79:                                               ; preds = %77, %74, %59
  %.0 = load ptr, ptr %4, align 8
  call void @llvm.lifetime.end.p0(i64 8, ptr nonnull %4) #19
  ret ptr %.0
}